; Function Attrs: mustprogress uwtable
define hidden void @_ZNK7datalog23finite_product_relation18extract_table_factERKNS_13relation_factER7svectorImjE(ptr nocapture noundef nonnull readonly align 8 dereferenceable(160) %this, ptr nocapture noundef nonnull readonly align 8 dereferenceable(16) %rf, ptr noundef nonnull align 8 dereferenceable(8) %tf) local_unnamed_addr #3 align 2 {
entry:
  %el = alloca i64, align 8
  %ref.tmp = alloca ptr, align 8
  %m_signature.i = getelementptr inbounds i8, ptr %this, i64 16
  %m_plugin.i.i = getelementptr inbounds i8, ptr %this, i64 8
  %0 = load ptr, ptr %m_plugin.i.i, align 8
  %m_manager.i.i = getelementptr inbounds i8, ptr %0, i64 24
  %1 = load ptr, ptr %m_manager.i.i, align 8
  %2 = load ptr, ptr %tf, align 8
  %tobool.not.i = icmp eq ptr %2, null
  br i1 %tobool.not.i, label %_ZN6vectorImLb0EjE5resetEv.exit, label %if.then.i

if.then.i:                                        ; preds = %entry
  %arrayidx.i = getelementptr inbounds i8, ptr %2, i64 -4
  store i32 0, ptr %arrayidx.i, align 4
  br label %_ZN6vectorImLb0EjE5resetEv.exit

_ZN6vectorImLb0EjE5resetEv.exit:                  ; preds = %entry, %if.then.i
  %m_table2sig = getelementptr inbounds i8, ptr %this, i64 48
  %3 = load ptr, ptr %m_table2sig, align 8
  %cmp.i = icmp eq ptr %3, null
  br i1 %cmp.i, label %for.end, label %_ZNK6vectorIjLb0EjE4sizeEv.exit

_ZNK6vectorIjLb0EjE4sizeEv.exit:                  ; preds = %_ZN6vectorImLb0EjE5resetEv.exit
  %arrayidx.i6 = getelementptr inbounds i8, ptr %3, i64 -4
  %4 = load i32, ptr %arrayidx.i6, align 4
  %cmp28.not = icmp eq i32 %4, 0
  br i1 %cmp28.not, label %for.end, label %for.body.lr.ph

for.body.lr.ph:                                   ; preds = %_ZNK6vectorIjLb0EjE4sizeEv.exit
  %m_nodes.i.i = getelementptr inbounds i8, ptr %rf, i64 8
  %wide.trip.count = zext i32 %4 to i64
  br label %for.body

for.body:                                         ; preds = %for.body.lr.ph, %_ZN6vectorImLb0EjE9push_backERKm.exit
  %indvars.iv = phi i64 [ 0, %for.body.lr.ph ], [ %indvars.iv.next, %_ZN6vectorImLb0EjE9push_backERKm.exit ]
  %5 = load ptr, ptr %m_table2sig, align 8
  %arrayidx.i7 = getelementptr inbounds i32, ptr %5, i64 %indvars.iv
  %6 = load i32, ptr %arrayidx.i7, align 4
  %7 = load ptr, ptr %m_signature.i, align 8
  %idxprom.i8 = zext i32 %6 to i64
  %arrayidx.i9 = getelementptr inbounds ptr, ptr %7, i64 %idxprom.i8
  %8 = load ptr, ptr %m_nodes.i.i, align 8
  %arrayidx.i.i.i = getelementptr inbounds ptr, ptr %8, i64 %idxprom.i8
  %9 = load ptr, ptr %arrayidx.i.i.i, align 8
  store ptr %9, ptr %ref.tmp, align 8
  call void @_ZN7datalog16relation_manager17relation_to_tableERKP4sortRKP3appRm(ptr noundef nonnull align 8 dereferenceable(200) %1, ptr noundef nonnull align 8 dereferenceable(8) %arrayidx.i9, ptr noundef nonnull align 8 dereferenceable(8) %ref.tmp, ptr noundef nonnull align 8 dereferenceable(8) %el)
  %10 = load ptr, ptr %tf, align 8
  %cmp.i10 = icmp eq ptr %10, null
  br i1 %cmp.i10, label %if.then.i13, label %lor.lhs.false.i

lor.lhs.false.i:                                  ; preds = %for.body
  %arrayidx.i11 = getelementptr inbounds i8, ptr %10, i64 -4
  %11 = load i32, ptr %arrayidx.i11, align 4
  %arrayidx4.i = getelementptr inbounds i8, ptr %10, i64 -8
  %12 = load i32, ptr %arrayidx4.i, align 4
  %cmp5.i = icmp eq i32 %11, %12
  br i1 %cmp5.i, label %if.then.i13, label %_ZN6vectorImLb0EjE9push_backERKm.exit

if.then.i13:                                      ; preds = %lor.lhs.false.i, %for.body
  call void @_ZN6vectorImLb0EjE13expand_vectorEv(ptr noundef nonnull align 8 dereferenceable(8) %tf)
  %.pre.i = load ptr, ptr %tf, align 8
  %arrayidx8.phi.trans.insert.i = getelementptr inbounds i8, ptr %.pre.i, i64 -4
  %.pre1.i = load i32, ptr %arrayidx8.phi.trans.insert.i, align 4
  br label %_ZN6vectorImLb0EjE9push_backERKm.exit

_ZN6vectorImLb0EjE9push_backERKm.exit:            ; preds = %lor.lhs.false.i, %if.then.i13
  %13 = phi i32 [ %.pre1.i, %if.then.i13 ], [ %11, %lor.lhs.false.i ]
  %14 = phi ptr [ %.pre.i, %if.then.i13 ], [ %10, %lor.lhs.false.i ]
  %idx.ext.i = zext i32 %13 to i64
  %add.ptr.i = getelementptr inbounds i64, ptr %14, i64 %idx.ext.i
  %15 = load i64, ptr %el, align 8
  store i64 %15, ptr %add.ptr.i, align 8
  %16 = load ptr, ptr %tf, align 8
  %arrayidx10.i = getelementptr inbounds i8, ptr %16, i64 -4
  %17 = load i32, ptr %arrayidx10.i, align 4
  %inc.i = add i32 %17, 1
  store i32 %inc.i, ptr %arrayidx10.i, align 4
  %indvars.iv.next = add nuw nsw i64 %indvars.iv, 1
  %exitcond.not = icmp eq i64 %indvars.iv.next, %wide.trip.count
  br i1 %exitcond.not, label %for.end, label %for.body, !llvm.loop !40

for.end:                                          ; preds = %_ZN6vectorImLb0EjE9push_backERKm.exit, %_ZN6vectorImLb0EjE5resetEv.exit, %_ZNK6vectorIjLb0EjE4sizeEv.exit
  %18 = load ptr, ptr %tf, align 8
  %cmp.i14 = icmp eq ptr %18, null
  br i1 %cmp.i14, label %if.then.i24, label %lor.lhs.false.i15

lor.lhs.false.i15:                                ; preds = %for.end
  %arrayidx.i16 = getelementptr inbounds i8, ptr %18, i64 -4
  %19 = load i32, ptr %arrayidx.i16, align 4
  %arrayidx4.i17 = getelementptr inbounds i8, ptr %18, i64 -8
  %20 = load i32, ptr %arrayidx4.i17, align 4
  %cmp5.i18 = icmp eq i32 %19, %20
  br i1 %cmp5.i18, label %if.then.i24, label %_ZN6vectorImLb0EjE9push_backEOm.exit

if.then.i24:                                      ; preds = %lor.lhs.false.i15, %for.end
  call void @_ZN6vectorImLb0EjE13expand_vectorEv(ptr noundef nonnull align 8 dereferenceable(8) %tf)
  %.pre.i25 = load ptr, ptr %tf, align 8
  %arrayidx8.phi.trans.insert.i26 = getelementptr inbounds i8, ptr %.pre.i25, i64 -4
  %.pre1.i27 = load i32, ptr %arrayidx8.phi.trans.insert.i26, align 4
  br label %_ZN6vectorImLb0EjE9push_backEOm.exit

_ZN6vectorImLb0EjE9push_backEOm.exit:             ; preds = %lor.lhs.false.i15, %if.then.i24
  %21 = phi i32 [ %.pre1.i27, %if.then.i24 ], [ %19, %lor.lhs.false.i15 ]
  %22 = phi ptr [ %.pre.i25, %if.then.i24 ], [ %18, %lor.lhs.false.i15 ]
  %idx.ext.i20 = zext i32 %21 to i64
  %add.ptr.i21 = getelementptr inbounds i64, ptr %22, i64 %idx.ext.i20
  store i64 0, ptr %add.ptr.i21, align 8
  %23 = load ptr, ptr %tf, align 8
  %arrayidx10.i22 = getelementptr inbounds i8, ptr %23, i64 -4
  %24 = load i32, ptr %arrayidx10.i22, align 4
  %inc.i23 = add i32 %24, 1
  store i32 %inc.i23, ptr %arrayidx10.i22, align 4
  ret void
}